; Function Attrs: mustprogress nofree norecurse nosync nounwind willreturn memory(read, inaccessiblemem: none) uwtable
define hidden noundef ptr @_ZN14RotateLeftNode8IdentityEP8PhaseGVN(ptr noundef nonnull readonly align 8 dereferenceable(64) %0, ptr nocapture noundef readonly %1) unnamed_addr #6 align 2 {
  %3 = getelementptr inbounds i8, ptr %0, i64 8
  %4 = load ptr, ptr %3, align 8
  %5 = getelementptr inbounds i8, ptr %4, i64 8
  %6 = load ptr, ptr %5, align 8
  %7 = getelementptr inbounds i8, ptr %1, i64 40
  %8 = load ptr, ptr %7, align 8
  %9 = getelementptr inbounds i8, ptr %6, i64 40
  %10 = load i32, ptr %9, align 8
  %11 = getelementptr inbounds i8, ptr %8, i64 16
  %12 = load ptr, ptr %11, align 8
  %13 = zext i32 %10 to i64
  %14 = getelementptr inbounds ptr, ptr %12, i64 %13
  %15 = load ptr, ptr %14, align 8
  %16 = load ptr, ptr @_ZN4Type3TOPE, align 8
  %17 = icmp eq ptr %15, %16
  br i1 %17, label %_ZL17const_shift_countP8PhaseGVNP4NodePi.exit.thread, label %18

18:                                               ; preds = %2
  %19 = getelementptr inbounds i8, ptr %15, i64 16
  %20 = load i32, ptr %19, align 8
  %.not = icmp eq i32 %20, 3
  %21 = getelementptr i8, ptr %4, i64 16
  %.val7.val = load ptr, ptr %21, align 8
  %22 = getelementptr i8, ptr %.val7.val, i64 40
  %.val7.val.val = load i32, ptr %22, align 8
  %23 = zext i32 %.val7.val.val to i64
  %24 = getelementptr inbounds ptr, ptr %12, i64 %23
  %25 = load ptr, ptr %24, align 8
  %26 = getelementptr inbounds i8, ptr %25, i64 16
  %27 = load i32, ptr %26, align 8
  %28 = icmp ne i32 %27, 3
  %.not1.i = icmp eq ptr %25, null
  %.not.i = or i1 %.not1.i, %28
  br i1 %.not.i, label %_ZL17const_shift_countP8PhaseGVNP4NodePi.exit.thread, label %29

29:                                               ; preds = %18
  %30 = getelementptr inbounds i8, ptr %25, i64 24
  %31 = load i32, ptr %30, align 8
  %32 = getelementptr inbounds i8, ptr %25, i64 28
  %33 = load i32, ptr %32, align 4
  %34 = icmp eq i32 %31, %33
  br i1 %34, label %_ZL17const_shift_countP8PhaseGVNP4NodePi.exit, label %_ZL17const_shift_countP8PhaseGVNP4NodePi.exit.thread

_ZL17const_shift_countP8PhaseGVNP4NodePi.exit:    ; preds = %29
  %35 = select i1 %.not, i32 31, i32 63
  %36 = and i32 %31, %35
  %37 = icmp eq i32 %36, 0
  %spec.select = select i1 %37, ptr %6, ptr %0
  br label %_ZL17const_shift_countP8PhaseGVNP4NodePi.exit.thread

_ZL17const_shift_countP8PhaseGVNP4NodePi.exit.thread: ; preds = %_ZL17const_shift_countP8PhaseGVNP4NodePi.exit, %18, %29, %2
  %.0 = phi ptr [ %0, %2 ], [ %0, %29 ], [ %0, %18 ], [ %spec.select, %_ZL17const_shift_countP8PhaseGVNP4NodePi.exit ]
  ret ptr %.0
}